(i__main__
Customer
p0
(dp1
S'Verified'
p2
I00
sS'FirstName'
p3
S'ROSS'
p4
sS'DOB'
p5
(lp6
S'30'
p7
aS'04'
p8
aS'2000'
p9
asS'LastName'
p10
S'GELLER'
p11
sS'PhoneVerified'
p12
I00
sS'Passport'
p13
S'K124932423'
p14
sS'Type'
p15
S'Diamond'
p16
sS'Email'
p17
S''
p18
sS'password'
p19
S'password'
p20
sS'Balance'
p21
I45000000
sS'Phone1'
p22
g18
sS'Acc_no'
p23
S'345430042000'
p24
sS'AccCreated'
p25
I01
sS'Services'
p26
(dp27
S'ChequeBk'
p28
I01
sS'ATM'
p29
I01
sS'NetBank'
p30
I01
sS'MobileBank'
p31
I00
ssS'username'
p32
S'rs4rossgeller'
p33
sS'PAN_no'
p34
S'325424'
p35
sS'Name'
p36
S'ROSS GELLER'
p37
sS'altPhone'
p38
g18
sS'Activity'
p39
(lp40
(lp41
S'Account Created on Thu Nov 30 22:16:17 2017'
p42
aa(lp43
S'Account Updated on Thu Nov 30 22:16:44 2017'
p44
aasS'ATM_Pin'
p45
I5706
sS'TransactionHistory'
p46
(lp47
sS'Loan'
p48
(dp49
S'Car'
p50
I00
sS'Education'
p51
I00
sS'Gold'
p52
I00
sS'Home'
p53
I00
ssS'verify_no'
p54
I57659
sS'Sex'
p55
S'MALE'
p56
sb.(i__main__
Customer
p0
(dp1
S'Verified'
p2
I01
sS'FirstName'
p3
S'ARYA'
p4
sS'DOB'
p5
(lp6
S'08'
p7
aS'12'
p8
aS'2000'
p9
asS'LastName'
p10
S'SIDHARTH'
p11
sS'PhoneVerified'
p12
I00
sS'Passport'
p13
S'K1924323'
p14
sS'Type'
p15
S'Silver'
p16
sS'Email'
p17
S'aryaishere6@gmail.com'
p18
sS'password'
p19
S'sidhusidhu'
p20
sS'Balance'
p21
I25000
sS'Phone1'
p22
S'9995505595'
p23
sS'Acc_no'
p24
S'926408122000'
p25
sS'AccCreated'
p26
I01
sS'Services'
p27
(dp28
S'ChequeBk'
p29
I01
sS'ATM'
p30
I01
sS'NetBank'
p31
I01
sS'MobileBank'
p32
I01
ssS'username'
p33
S'aryas'
p34
sS'PAN_no'
p35
S'98349234'
p36
sS'Name'
p37
S'ARYA SIDHARTH'
p38
sS'altPhone'
p39
S'+918547171243'
p40
sS'Activity'
p41
(lp42
(lp43
S'Account Created on Tue Jan 16 20:05:27 2018'
p44
aa(lp45
S'Account Updated on Tue Jan 16 20:12:34 2018'
p46
aa(lp47
S'Phone Number Updated on Tue Jan 16 20:18:58 2018'
p48
aa(lp49
S'Phone Number Updated on Tue Jan 16 20:19:19 2018'
p50
aasS'ATM_Pin'
p51
I1299
sS'TransactionHistory'
p52
(lp53
sS'Loan'
p54
(dp55
S'Car'
p56
I00
sS'Education'
p57
I00
sS'Gold'
p58
I00
sS'Home'
p59
I00
ssS'verify_no'
p60
I700634
sS'Sex'
p61
S'FEMALE'
p62
sb.(i__main__
Customer
p0
(dp1
S'Verified'
p2
I01
sS'FirstName'
p3
S'SREENATH'
p4
sS'DOB'
p5
(lp6
S'28'
p7
aS'09'
p8
aS'2000'
p9
asS'LastName'
p10
S'MS'
p11
sS'PhoneVerified'
p12
I00
sS'Passport'
p13
S'K193432'
p14
sS'Type'
p15
S'Platinum'
p16
sS'Email'
p17
S'sreenums007@gmail.com'
p18
sS'password'
p19
S'krish123'
p20
sS'Balance'
p21
I2000000
sS'Phone1'
p22
S'+'
p23
sS'Acc_no'
p24
S'974228092000'
p25
sS'AccCreated'
p26
I01
sS'Services'
p27
(dp28
S'ChequeBk'
p29
I01
sS'ATM'
p30
I01
sS'NetBank'
p31
I01
sS'MobileBank'
p32
I01
ssS'username'
p33
S'sree123'
p34
sS'PAN_no'
p35
S'94835'
p36
sS'Name'
p37
S'SREENATH MS'
p38
sS'altPhone'
p39
S''
p40
sS'Activity'
p41
(lp42
(lp43
S'Account Created on Wed Jan 17 08:20:33 2018'
p44
aa(lp45
S'Account Updated on Wed Jan 17 08:21:33 2018'
p46
aasS'ATM_Pin'
p47
I8303
sS'TransactionHistory'
p48
(lp49
sS'Loan'
p50
(dp51
S'Car'
p52
I00
sS'Education'
p53
I00
sS'Gold'
p54
I00
sS'Home'
p55
I00
ssS'verify_no'
p56
I523384
sS'Sex'
p57
S'MALE'
p58
sb.(i__main__
Customer
p0
(dp1
S'Verified'
p2
I01
sS'FirstName'
p3
S'RAM'
p4
sS'DOB'
p5
(lp6
S'30'
p7
aS'06'
p8
aS'1992'
p9
asS'LastName'
p10
S'SINGH'
p11
sS'PhoneVerified'
p12
I00
sS'Passport'
p13
S'K13948'
p14
sS'Type'
p15
S'Gold'
p16
sS'Email'
p17
S'rahulsunil2@gmail.com'
p18
sS'password'
p19
S'password'
p20
sS'Balance'
p21
I450000
sS'Phone1'
p22
S'+'
p23
sS'Acc_no'
p24
S'744330061992'
p25
sS'AccCreated'
p26
I01
sS'Services'
p27
(dp28
S'ChequeBk'
p29
I01
sS'ATM'
p30
I01
sS'NetBank'
p31
I01
sS'MobileBank'
p32
I01
ssS'username'
p33
S'rs4rs4'
p34
sS'PAN_no'
p35
S'8996'
p36
sS'Name'
p37
S'RAM SINGH'
p38
sS'altPhone'
p39
S''
p40
sS'Activity'
p41
(lp42
(lp43
S'Account Created on Tue Jan 30 13:51:11 2018'
p44
aa(lp45
S'Account Updated on Tue Jan 30 13:52:03 2018'
p46
aa(lp47
S'Account Number Updated on Tue Jan 30 13:54:29 2018'
p48
aasS'ATM_Pin'
p49
I9015
sS'TransactionHistory'
p50
(lp51
sS'Loan'
p52
(dp53
S'Car'
p54
I00
sS'Education'
p55
I00
sg16
I00
sS'Home'
p56
I00
ssS'verify_no'
p57
I241612
sS'Sex'
p58
S'MALE'
p59
sb.(i__main__
Customer
p0
(dp1
S'Verified'
p2
I01
sS'FirstName'
p3
S'RAHUL'
p4
sS'DOB'
p5
(lp6
S'30'
p7
aS'04'
p8
aS'2000'
p9
asS'LastName'
p10
S'SUNIL'
p11
sS'PhoneVerified'
p12
I00
sS'Passport'
p13
S'K128342423'
p14
sS'Type'
p15
S'Gold'
p16
sS'Email'
p17
S'rahulsunil2@gmail.com'
p18
sS'password'
p19
S'password'
p20
sS'Balance'
p21
I450000
sS'Phone1'
p22
S'919445634594'
p23
sS'Acc_no'
p24
S'933630042000'
p25
sS'AccCreated'
p26
I01
sS'Services'
p27
(dp28
S'ChequeBk'
p29
I00
sS'ATM'
p30
I01
sS'NetBank'
p31
I01
sS'MobileBank'
p32
I00
ssS'username'
p33
S'rahulsunil2'
p34
sS'PAN_no'
p35
S'567564'
p36
sS'Name'
p37
S'RAHUL SUNIL'
p38
sS'altPhone'
p39
S''
p40
sS'Activity'
p41
(lp42
(lp43
S'Account Created on Mon Jan 15 23:29:39 2018'
p44
aa(lp45
S'Account Updated on Mon Jan 15 23:31:38 2018'
p46
aa(lp47
S'Account Number Updated on Mon Jan 15 23:35:18 2018'
p48
aasS'ATM_Pin'
p49
I1884
sS'TransactionHistory'
p50
(lp51
sS'Loan'
p52
(dp53
S'Car'
p54
I00
sS'Education'
p55
I00
sg16
I00
sS'Home'
p56
I00
ssS'verify_no'
p57
I68158
sS'Sex'
p58
S'MALE'
p59
sb.